target datalayout = "e-m:e-p270:32:32-p271:32:32-p272:64:64-i64:64-i128:128-f80:128-n8:16:32:64-S128"
target triple = "x86_64-pc-linux-gnu"

%class.Filter = type { ptr, %"class.std::bitset" }
%"class.std::bitset" = type { %"struct.std::_Base_bitset" }
%"struct.std::_Base_bitset" = type { i64 }
%"class.std::bitset<2>::reference" = type { ptr, i64 }

$_ZNSt6bitsetILm2EEC2Ev = comdat any

$_ZNSt6bitsetILm2EE3setEv = comdat any

$_ZNSt6bitsetILm2EE5resetEv = comdat any

$_ZNSt6bitsetILm2EEixEm = comdat any

$_ZNSt6bitsetILm2EE9referenceaSEb = comdat any

$_ZNSt6bitsetILm2EE9referenceD2Ev = comdat any

$_ZNKSt6bitsetILm2EE4testEm = comdat any

$_ZNSt12_Base_bitsetILm1EEC2Ev = comdat any

$_ZNSt12_Base_bitsetILm1EE9_M_do_setEv = comdat any

$_ZNSt6bitsetILm2EE14_M_do_sanitizeEv = comdat any

$_ZNSt9_SanitizeILm2EE14_S_do_sanitizeERm = comdat any

$_ZNSt12_Base_bitsetILm1EE9_M_hiwordEv = comdat any

$_ZNSt12_Base_bitsetILm1EE11_M_do_resetEv = comdat any

$_ZNSt6bitsetILm2EE9referenceC2ERS0_m = comdat any

$_ZNSt12_Base_bitsetILm1EE10_M_getwordEm = comdat any

$_ZNSt12_Base_bitsetILm1EE11_S_whichbitEm = comdat any

$_ZNSt12_Base_bitsetILm1EE10_S_maskbitEm = comdat any

$_ZNKSt6bitsetILm2EE8_M_checkEmPKc = comdat any

$_ZNKSt6bitsetILm2EE15_Unchecked_testEm = comdat any

$_ZNKSt12_Base_bitsetILm1EE10_M_getwordEm = comdat any

@_ZTV6Filter = dso_local unnamed_addr constant { [5 x ptr] } { [5 x ptr] [ptr null, ptr @_ZTI6Filter, ptr @_ZN6FilterD1Ev, ptr @_ZN6FilterD0Ev, ptr @__cxa_pure_virtual] }, align 8
@_ZTI6Filter = dso_local constant { ptr, ptr } { ptr getelementptr inbounds (ptr, ptr @_ZTVN10__cxxabiv117__class_type_infoE, i64 2), ptr @_ZTS6Filter }, align 8
@_ZTVN10__cxxabiv117__class_type_infoE = external global [0 x ptr]
@_ZTS6Filter = dso_local constant [8 x i8] c"6Filter\00", align 1
@.str = private unnamed_addr constant [13 x i8] c"bitset::test\00", align 1
@.str.1 = private unnamed_addr constant [52 x i8] c"%s: __position (which is %zu) >= _Nb (which is %zu)\00", align 1

@_ZN6FilterD1Ev = dso_local unnamed_addr alias void (ptr), ptr @_ZN6FilterD2Ev

; Function Attrs: mustprogress nounwind uwtable
define dso_local void @_ZN6FilterC2Ev(ptr noundef nonnull align 8 dereferenceable(16) %0) unnamed_addr #0 align 2 {
  %2 = alloca ptr, align 8
  store ptr %0, ptr %2, align 8, !tbaa !4
  %3 = load ptr, ptr %2, align 8
  store ptr getelementptr inbounds inrange(-16, 24) ({ [5 x ptr] }, ptr @_ZTV6Filter, i32 0, i32 0, i32 2), ptr %3, align 8, !tbaa !9
  %4 = getelementptr inbounds nuw %class.Filter, ptr %3, i32 0, i32 1
  call void @_ZNSt6bitsetILm2EEC2Ev(ptr noundef nonnull align 8 dereferenceable(8) %4) #6
  %5 = getelementptr inbounds nuw %class.Filter, ptr %3, i32 0, i32 1
  %6 = call noundef nonnull align 8 dereferenceable(8) ptr @_ZNSt6bitsetILm2EE3setEv(ptr noundef nonnull align 8 dereferenceable(8) %5) #6
  ret void
}

; Function Attrs: mustprogress nounwind uwtable
define linkonce_odr dso_local void @_ZNSt6bitsetILm2EEC2Ev(ptr noundef nonnull align 8 dereferenceable(8) %0) unnamed_addr #0 comdat align 2 {
  %2 = alloca ptr, align 8
  store ptr %0, ptr %2, align 8, !tbaa !11
  %3 = load ptr, ptr %2, align 8
  call void @_ZNSt12_Base_bitsetILm1EEC2Ev(ptr noundef nonnull align 8 dereferenceable(8) %3) #6
  ret void
}

; Function Attrs: mustprogress nounwind uwtable
define linkonce_odr dso_local noundef nonnull align 8 dereferenceable(8) ptr @_ZNSt6bitsetILm2EE3setEv(ptr noundef nonnull align 8 dereferenceable(8) %0) #0 comdat align 2 {
  %2 = alloca ptr, align 8
  store ptr %0, ptr %2, align 8, !tbaa !11
  %3 = load ptr, ptr %2, align 8
  call void @_ZNSt12_Base_bitsetILm1EE9_M_do_setEv(ptr noundef nonnull align 8 dereferenceable(8) %3) #6
  call void @_ZNSt6bitsetILm2EE14_M_do_sanitizeEv(ptr noundef nonnull align 8 dereferenceable(8) %3) #6
  ret ptr %3
}

; Function Attrs: mustprogress nounwind uwtable
define dso_local void @_ZN6FilterD2Ev(ptr noundef nonnull align 8 dereferenceable(16) %0) unnamed_addr #0 align 2 {
  %2 = alloca ptr, align 8
  store ptr %0, ptr %2, align 8, !tbaa !4
  %3 = load ptr, ptr %2, align 8
  store ptr getelementptr inbounds inrange(-16, 24) ({ [5 x ptr] }, ptr @_ZTV6Filter, i32 0, i32 0, i32 2), ptr %3, align 8, !tbaa !9
  %4 = getelementptr inbounds nuw %class.Filter, ptr %3, i32 0, i32 1
  %5 = call noundef nonnull align 8 dereferenceable(8) ptr @_ZNSt6bitsetILm2EE5resetEv(ptr noundef nonnull align 8 dereferenceable(8) %4) #6
  ret void
}

; Function Attrs: mustprogress nounwind uwtable
define linkonce_odr dso_local noundef nonnull align 8 dereferenceable(8) ptr @_ZNSt6bitsetILm2EE5resetEv(ptr noundef nonnull align 8 dereferenceable(8) %0) #0 comdat align 2 {
  %2 = alloca ptr, align 8
  store ptr %0, ptr %2, align 8, !tbaa !11
  %3 = load ptr, ptr %2, align 8
  call void @_ZNSt12_Base_bitsetILm1EE11_M_do_resetEv(ptr noundef nonnull align 8 dereferenceable(8) %3) #6
  ret ptr %3
}

; Function Attrs: mustprogress nounwind uwtable
define dso_local void @_ZN6FilterD0Ev(ptr noundef nonnull align 8 dereferenceable(16) %0) unnamed_addr #0 align 2 {
  %2 = alloca ptr, align 8
  store ptr %0, ptr %2, align 8, !tbaa !4
  call void @llvm.trap() #7
  unreachable
}

; Function Attrs: cold noreturn nounwind memory(inaccessiblemem: write)
declare void @llvm.trap() #1

; Function Attrs: mustprogress uwtable
define dso_local void @_ZN6Filter6enableE10FilterKind(ptr noundef nonnull align 8 dereferenceable(16) %0, i32 noundef %1) #2 align 2 {
  %3 = alloca ptr, align 8
  %4 = alloca i32, align 4
  %5 = alloca %"class.std::bitset<2>::reference", align 8
  store ptr %0, ptr %3, align 8, !tbaa !4
  store i32 %1, ptr %4, align 4, !tbaa !13
  %6 = load ptr, ptr %3, align 8
  call void @llvm.lifetime.start.p0(i64 16, ptr %5) #6
  %7 = getelementptr inbounds nuw %class.Filter, ptr %6, i32 0, i32 1
  %8 = load i32, ptr %4, align 4, !tbaa !13
  %9 = zext i32 %8 to i64
  call void @_ZNSt6bitsetILm2EEixEm(ptr dead_on_unwind writable sret(%"class.std::bitset<2>::reference") align 8 %5, ptr noundef nonnull align 8 dereferenceable(8) %7, i64 noundef %9)
  %10 = call noundef nonnull align 8 dereferenceable(16) ptr @_ZNSt6bitsetILm2EE9referenceaSEb(ptr noundef nonnull align 8 dereferenceable(16) %5, i1 noundef zeroext true) #6
  call void @_ZNSt6bitsetILm2EE9referenceD2Ev(ptr noundef nonnull align 8 dereferenceable(16) %5) #6
  call void @llvm.lifetime.end.p0(i64 16, ptr %5) #6
  ret void
}

; Function Attrs: nocallback nofree nosync nounwind willreturn memory(argmem: readwrite)
declare void @llvm.lifetime.start.p0(i64 immarg, ptr captures(none)) #3

; Function Attrs: mustprogress nounwind uwtable
define linkonce_odr dso_local void @_ZNSt6bitsetILm2EEixEm(ptr dead_on_unwind noalias writable sret(%"class.std::bitset<2>::reference") align 8 %0, ptr noundef nonnull align 8 dereferenceable(8) %1, i64 noundef %2) #0 comdat align 2 {
  %4 = alloca ptr, align 8
  %5 = alloca ptr, align 8
  %6 = alloca i64, align 8
  store ptr %0, ptr %4, align 8
  store ptr %1, ptr %5, align 8, !tbaa !11
  store i64 %2, ptr %6, align 8, !tbaa !15
  %7 = load ptr, ptr %5, align 8
  %8 = load i64, ptr %6, align 8, !tbaa !15
  call void @_ZNSt6bitsetILm2EE9referenceC2ERS0_m(ptr noundef nonnull align 8 dereferenceable(16) %0, ptr noundef nonnull align 8 dereferenceable(8) %7, i64 noundef %8) #6
  ret void
}

; Function Attrs: mustprogress nounwind uwtable
define linkonce_odr dso_local noundef nonnull align 8 dereferenceable(16) ptr @_ZNSt6bitsetILm2EE9referenceaSEb(ptr noundef nonnull align 8 dereferenceable(16) %0, i1 noundef zeroext %1) #0 comdat align 2 {
  %3 = alloca ptr, align 8
  %4 = alloca i8, align 1
  store ptr %0, ptr %3, align 8, !tbaa !17
  %5 = zext i1 %1 to i8
  store i8 %5, ptr %4, align 1, !tbaa !19
  %6 = load ptr, ptr %3, align 8
  %7 = load i8, ptr %4, align 1, !tbaa !19, !range !21, !noundef !22
  %8 = trunc i8 %7 to i1
  br i1 %8, label %9, label %17

9:                                                ; preds = %2
  %10 = getelementptr inbounds nuw %"class.std::bitset<2>::reference", ptr %6, i32 0, i32 1
  %11 = load i64, ptr %10, align 8, !tbaa !23
  %12 = call noundef i64 @_ZNSt12_Base_bitsetILm1EE10_S_maskbitEm(i64 noundef %11) #6
  %13 = getelementptr inbounds nuw %"class.std::bitset<2>::reference", ptr %6, i32 0, i32 0
  %14 = load ptr, ptr %13, align 8, !tbaa !26
  %15 = load i64, ptr %14, align 8, !tbaa !15
  %16 = or i64 %15, %12
  store i64 %16, ptr %14, align 8, !tbaa !15
  br label %26

17:                                               ; preds = %2
  %18 = getelementptr inbounds nuw %"class.std::bitset<2>::reference", ptr %6, i32 0, i32 1
  %19 = load i64, ptr %18, align 8, !tbaa !23
  %20 = call noundef i64 @_ZNSt12_Base_bitsetILm1EE10_S_maskbitEm(i64 noundef %19) #6
  %21 = xor i64 %20, -1
  %22 = getelementptr inbounds nuw %"class.std::bitset<2>::reference", ptr %6, i32 0, i32 0
  %23 = load ptr, ptr %22, align 8, !tbaa !26
  %24 = load i64, ptr %23, align 8, !tbaa !15
  %25 = and i64 %24, %21
  store i64 %25, ptr %23, align 8, !tbaa !15
  br label %26

26:                                               ; preds = %17, %9
  ret ptr %6
}

; Function Attrs: mustprogress nounwind uwtable
define linkonce_odr dso_local void @_ZNSt6bitsetILm2EE9referenceD2Ev(ptr noundef nonnull align 8 dereferenceable(16) %0) unnamed_addr #0 comdat align 2 {
  %2 = alloca ptr, align 8
  store ptr %0, ptr %2, align 8, !tbaa !17
  ret void
}

; Function Attrs: nocallback nofree nosync nounwind willreturn memory(argmem: readwrite)
declare void @llvm.lifetime.end.p0(i64 immarg, ptr captures(none)) #3

; Function Attrs: mustprogress uwtable
define dso_local void @_ZN6Filter7disableE10FilterKind(ptr noundef nonnull align 8 dereferenceable(16) %0, i32 noundef %1) #2 align 2 {
  %3 = alloca ptr, align 8
  %4 = alloca i32, align 4
  %5 = alloca %"class.std::bitset<2>::reference", align 8
  store ptr %0, ptr %3, align 8, !tbaa !4
  store i32 %1, ptr %4, align 4, !tbaa !13
  %6 = load ptr, ptr %3, align 8
  call void @llvm.lifetime.start.p0(i64 16, ptr %5) #6
  %7 = getelementptr inbounds nuw %class.Filter, ptr %6, i32 0, i32 1
  %8 = load i32, ptr %4, align 4, !tbaa !13
  %9 = zext i32 %8 to i64
  call void @_ZNSt6bitsetILm2EEixEm(ptr dead_on_unwind writable sret(%"class.std::bitset<2>::reference") align 8 %5, ptr noundef nonnull align 8 dereferenceable(8) %7, i64 noundef %9)
  %10 = call noundef nonnull align 8 dereferenceable(16) ptr @_ZNSt6bitsetILm2EE9referenceaSEb(ptr noundef nonnull align 8 dereferenceable(16) %5, i1 noundef zeroext false) #6
  call void @_ZNSt6bitsetILm2EE9referenceD2Ev(ptr noundef nonnull align 8 dereferenceable(16) %5) #6
  call void @llvm.lifetime.end.p0(i64 16, ptr %5) #6
  ret void
}

; Function Attrs: mustprogress uwtable
define dso_local noundef i32 @_ZNK6Filter12current_kindEv(ptr noundef nonnull align 8 dereferenceable(16) %0) #2 align 2 {
  %2 = alloca i32, align 4
  %3 = alloca ptr, align 8
  store ptr %0, ptr %3, align 8, !tbaa !4
  %4 = call noundef zeroext i1 @_ZN9CGOptions12random_basedEv()
  br i1 %4, label %5, label %6

5:                                                ; preds = %1
  store i32 0, ptr %2, align 4
  br label %11

6:                                                ; preds = %1
  %7 = call noundef zeroext i1 @_ZN9CGOptions14dfs_exhaustiveEv()
  br i1 %7, label %8, label %9

8:                                                ; preds = %6
  store i32 1, ptr %2, align 4
  br label %11

9:                                                ; preds = %6
  br label %10

10:                                               ; preds = %9
  store i32 0, ptr %2, align 4
  br label %11

11:                                               ; preds = %10, %8, %5
  %12 = load i32, ptr %2, align 4
  ret i32 %12
}

declare noundef zeroext i1 @_ZN9CGOptions12random_basedEv() #4

declare noundef zeroext i1 @_ZN9CGOptions14dfs_exhaustiveEv() #4

; Function Attrs: mustprogress uwtable
define dso_local noundef zeroext i1 @_ZNK6Filter12valid_filterEv(ptr noundef nonnull align 8 dereferenceable(16) %0) #2 align 2 {
  %2 = alloca i1, align 1
  %3 = alloca ptr, align 8
  %4 = alloca i32, align 4
  %5 = alloca i32, align 4
  store ptr %0, ptr %3, align 8, !tbaa !4
  %6 = load ptr, ptr %3, align 8
  call void @llvm.lifetime.start.p0(i64 4, ptr %4) #6
  %7 = call noundef i32 @_ZNK6Filter12current_kindEv(ptr noundef nonnull align 8 dereferenceable(16) %6)
  store i32 %7, ptr %4, align 4, !tbaa !13
  %8 = getelementptr inbounds nuw %class.Filter, ptr %6, i32 0, i32 1
  %9 = load i32, ptr %4, align 4, !tbaa !13
  %10 = zext i32 %9 to i64
  %11 = call noundef zeroext i1 @_ZNKSt6bitsetILm2EE4testEm(ptr noundef nonnull align 8 dereferenceable(8) %8, i64 noundef %10)
  br i1 %11, label %13, label %12

12:                                               ; preds = %1
  store i1 false, ptr %2, align 1
  store i32 1, ptr %5, align 4
  br label %14

13:                                               ; preds = %1
  store i1 true, ptr %2, align 1
  store i32 1, ptr %5, align 4
  br label %14

14:                                               ; preds = %13, %12
  call void @llvm.lifetime.end.p0(i64 4, ptr %4) #6
  %15 = load i1, ptr %2, align 1
  ret i1 %15
}

; Function Attrs: mustprogress uwtable
define linkonce_odr dso_local noundef zeroext i1 @_ZNKSt6bitsetILm2EE4testEm(ptr noundef nonnull align 8 dereferenceable(8) %0, i64 noundef %1) #2 comdat align 2 {
  %3 = alloca ptr, align 8
  %4 = alloca i64, align 8
  store ptr %0, ptr %3, align 8, !tbaa !11
  store i64 %1, ptr %4, align 8, !tbaa !15
  %5 = load ptr, ptr %3, align 8
  %6 = load i64, ptr %4, align 8, !tbaa !15
  call void @_ZNKSt6bitsetILm2EE8_M_checkEmPKc(ptr noundef nonnull align 8 dereferenceable(8) %5, i64 noundef %6, ptr noundef @.str)
  %7 = load i64, ptr %4, align 8, !tbaa !15
  %8 = call noundef zeroext i1 @_ZNKSt6bitsetILm2EE15_Unchecked_testEm(ptr noundef nonnull align 8 dereferenceable(8) %5, i64 noundef %7) #6
  ret i1 %8
}

declare void @__cxa_pure_virtual() unnamed_addr

; Function Attrs: mustprogress nounwind uwtable
define linkonce_odr dso_local void @_ZNSt12_Base_bitsetILm1EEC2Ev(ptr noundef nonnull align 8 dereferenceable(8) %0) unnamed_addr #0 comdat align 2 {
  %2 = alloca ptr, align 8
  store ptr %0, ptr %2, align 8, !tbaa !27
  %3 = load ptr, ptr %2, align 8
  %4 = getelementptr inbounds nuw %"struct.std::_Base_bitset", ptr %3, i32 0, i32 0
  store i64 0, ptr %4, align 8, !tbaa !29
  ret void
}

; Function Attrs: mustprogress nounwind uwtable
define linkonce_odr dso_local void @_ZNSt12_Base_bitsetILm1EE9_M_do_setEv(ptr noundef nonnull align 8 dereferenceable(8) %0) #0 comdat align 2 {
  %2 = alloca ptr, align 8
  store ptr %0, ptr %2, align 8, !tbaa !27
  %3 = load ptr, ptr %2, align 8
  %4 = getelementptr inbounds nuw %"struct.std::_Base_bitset", ptr %3, i32 0, i32 0
  store i64 -1, ptr %4, align 8, !tbaa !29
  ret void
}

; Function Attrs: mustprogress nounwind uwtable
define linkonce_odr dso_local void @_ZNSt6bitsetILm2EE14_M_do_sanitizeEv(ptr noundef nonnull align 8 dereferenceable(8) %0) #0 comdat align 2 {
  %2 = alloca ptr, align 8
  store ptr %0, ptr %2, align 8, !tbaa !11
  %3 = load ptr, ptr %2, align 8
  %4 = call noundef nonnull align 8 dereferenceable(8) ptr @_ZNSt12_Base_bitsetILm1EE9_M_hiwordEv(ptr noundef nonnull align 8 dereferenceable(8) %3) #6
  call void @_ZNSt9_SanitizeILm2EE14_S_do_sanitizeERm(ptr noundef nonnull align 8 dereferenceable(8) %4) #6
  ret void
}

; Function Attrs: mustprogress nounwind uwtable
define linkonce_odr dso_local void @_ZNSt9_SanitizeILm2EE14_S_do_sanitizeERm(ptr noundef nonnull align 8 dereferenceable(8) %0) #0 comdat align 2 {
  %2 = alloca ptr, align 8
  store ptr %0, ptr %2, align 8, !tbaa !31
  %3 = load ptr, ptr %2, align 8, !tbaa !31
  %4 = load i64, ptr %3, align 8, !tbaa !15
  %5 = and i64 %4, 3
  store i64 %5, ptr %3, align 8, !tbaa !15
  ret void
}

; Function Attrs: mustprogress nounwind uwtable
define linkonce_odr dso_local noundef nonnull align 8 dereferenceable(8) ptr @_ZNSt12_Base_bitsetILm1EE9_M_hiwordEv(ptr noundef nonnull align 8 dereferenceable(8) %0) #0 comdat align 2 {
  %2 = alloca ptr, align 8
  store ptr %0, ptr %2, align 8, !tbaa !27
  %3 = load ptr, ptr %2, align 8
  %4 = getelementptr inbounds nuw %"struct.std::_Base_bitset", ptr %3, i32 0, i32 0
  ret ptr %4
}

; Function Attrs: mustprogress nounwind uwtable
define linkonce_odr dso_local void @_ZNSt12_Base_bitsetILm1EE11_M_do_resetEv(ptr noundef nonnull align 8 dereferenceable(8) %0) #0 comdat align 2 {
  %2 = alloca ptr, align 8
  store ptr %0, ptr %2, align 8, !tbaa !27
  %3 = load ptr, ptr %2, align 8
  %4 = getelementptr inbounds nuw %"struct.std::_Base_bitset", ptr %3, i32 0, i32 0
  store i64 0, ptr %4, align 8, !tbaa !29
  ret void
}

; Function Attrs: mustprogress nounwind uwtable
define linkonce_odr dso_local void @_ZNSt6bitsetILm2EE9referenceC2ERS0_m(ptr noundef nonnull align 8 dereferenceable(16) %0, ptr noundef nonnull align 8 dereferenceable(8) %1, i64 noundef %2) unnamed_addr #0 comdat align 2 {
  %4 = alloca ptr, align 8
  %5 = alloca ptr, align 8
  %6 = alloca i64, align 8
  store ptr %0, ptr %4, align 8, !tbaa !17
  store ptr %1, ptr %5, align 8, !tbaa !11
  store i64 %2, ptr %6, align 8, !tbaa !15
  %7 = load ptr, ptr %4, align 8
  %8 = load ptr, ptr %5, align 8, !tbaa !11
  %9 = load i64, ptr %6, align 8, !tbaa !15
  %10 = call noundef nonnull align 8 dereferenceable(8) ptr @_ZNSt12_Base_bitsetILm1EE10_M_getwordEm(ptr noundef nonnull align 8 dereferenceable(8) %8, i64 noundef %9) #6
  %11 = getelementptr inbounds nuw %"class.std::bitset<2>::reference", ptr %7, i32 0, i32 0
  store ptr %10, ptr %11, align 8, !tbaa !26
  %12 = load i64, ptr %6, align 8, !tbaa !15
  %13 = call noundef i64 @_ZNSt12_Base_bitsetILm1EE11_S_whichbitEm(i64 noundef %12) #6
  %14 = getelementptr inbounds nuw %"class.std::bitset<2>::reference", ptr %7, i32 0, i32 1
  store i64 %13, ptr %14, align 8, !tbaa !23
  ret void
}

; Function Attrs: mustprogress nounwind uwtable
define linkonce_odr dso_local noundef nonnull align 8 dereferenceable(8) ptr @_ZNSt12_Base_bitsetILm1EE10_M_getwordEm(ptr noundef nonnull align 8 dereferenceable(8) %0, i64 noundef %1) #0 comdat align 2 {
  %3 = alloca ptr, align 8
  %4 = alloca i64, align 8
  store ptr %0, ptr %3, align 8, !tbaa !27
  store i64 %1, ptr %4, align 8, !tbaa !15
  %5 = load ptr, ptr %3, align 8
  %6 = getelementptr inbounds nuw %"struct.std::_Base_bitset", ptr %5, i32 0, i32 0
  ret ptr %6
}

; Function Attrs: mustprogress nounwind uwtable
define linkonce_odr dso_local noundef i64 @_ZNSt12_Base_bitsetILm1EE11_S_whichbitEm(i64 noundef %0) #0 comdat align 2 {
  %2 = alloca i64, align 8
  store i64 %0, ptr %2, align 8, !tbaa !15
  %3 = load i64, ptr %2, align 8, !tbaa !15
  %4 = urem i64 %3, 64
  ret i64 %4
}

; Function Attrs: mustprogress nounwind uwtable
define linkonce_odr dso_local noundef i64 @_ZNSt12_Base_bitsetILm1EE10_S_maskbitEm(i64 noundef %0) #0 comdat align 2 {
  %2 = alloca i64, align 8
  store i64 %0, ptr %2, align 8, !tbaa !15
  %3 = load i64, ptr %2, align 8, !tbaa !15
  %4 = call noundef i64 @_ZNSt12_Base_bitsetILm1EE11_S_whichbitEm(i64 noundef %3) #6
  %5 = shl i64 1, %4
  ret i64 %5
}

; Function Attrs: mustprogress uwtable
define linkonce_odr dso_local void @_ZNKSt6bitsetILm2EE8_M_checkEmPKc(ptr noundef nonnull align 8 dereferenceable(8) %0, i64 noundef %1, ptr noundef %2) #2 comdat align 2 {
  %4 = alloca ptr, align 8
  %5 = alloca i64, align 8
  %6 = alloca ptr, align 8
  store ptr %0, ptr %4, align 8, !tbaa !11
  store i64 %1, ptr %5, align 8, !tbaa !15
  store ptr %2, ptr %6, align 8, !tbaa !32
  %7 = load i64, ptr %5, align 8, !tbaa !15
  %8 = icmp uge i64 %7, 2
  br i1 %8, label %9, label %12

9:                                                ; preds = %3
  %10 = load ptr, ptr %6, align 8, !tbaa !32
  %11 = load i64, ptr %5, align 8, !tbaa !15
  call void (ptr, ...) @_ZSt24__throw_out_of_range_fmtPKcz(ptr noundef @.str.1, ptr noundef %10, i64 noundef %11, i64 noundef 2) #8
  unreachable

12:                                               ; preds = %3
  ret void
}

; Function Attrs: mustprogress nounwind uwtable
define linkonce_odr dso_local noundef zeroext i1 @_ZNKSt6bitsetILm2EE15_Unchecked_testEm(ptr noundef nonnull align 8 dereferenceable(8) %0, i64 noundef %1) #0 comdat align 2 {
  %3 = alloca ptr, align 8
  %4 = alloca i64, align 8
  store ptr %0, ptr %3, align 8, !tbaa !11
  store i64 %1, ptr %4, align 8, !tbaa !15
  %5 = load ptr, ptr %3, align 8
  %6 = load i64, ptr %4, align 8, !tbaa !15
  %7 = call noundef i64 @_ZNKSt12_Base_bitsetILm1EE10_M_getwordEm(ptr noundef nonnull align 8 dereferenceable(8) %5, i64 noundef %6) #6
  %8 = load i64, ptr %4, align 8, !tbaa !15
  %9 = call noundef i64 @_ZNSt12_Base_bitsetILm1EE10_S_maskbitEm(i64 noundef %8) #6
  %10 = and i64 %7, %9
  %11 = icmp ne i64 %10, 0
  ret i1 %11
}

; Function Attrs: noreturn
declare void @_ZSt24__throw_out_of_range_fmtPKcz(ptr noundef, ...) #5

; Function Attrs: mustprogress nounwind uwtable
define linkonce_odr dso_local noundef i64 @_ZNKSt12_Base_bitsetILm1EE10_M_getwordEm(ptr noundef nonnull align 8 dereferenceable(8) %0, i64 noundef %1) #0 comdat align 2 {
  %3 = alloca ptr, align 8
  %4 = alloca i64, align 8
  store ptr %0, ptr %3, align 8, !tbaa !27
  store i64 %1, ptr %4, align 8, !tbaa !15
  %5 = load ptr, ptr %3, align 8
  %6 = getelementptr inbounds nuw %"struct.std::_Base_bitset", ptr %5, i32 0, i32 0
  %7 = load i64, ptr %6, align 8, !tbaa !29
  ret i64 %7
}


!llvm.module.flags = !{!0, !1, !2, !3}

!0 = !{i32 1, !"wchar_size", i32 4}
!1 = !{i32 8, !"PIC Level", i32 2}
!2 = !{i32 7, !"PIE Level", i32 2}
!3 = !{i32 7, !"uwtable", i32 2}
!4 = !{!5, !5, i64 0}
!5 = !{!"p1 _ZTS6Filter", !6, i64 0}
!6 = !{!"any pointer", !7, i64 0}
!7 = !{!"omnipotent char", !8, i64 0}
!8 = !{!"Simple C++ TBAA"}
!9 = !{!10, !10, i64 0}
!10 = !{!"vtable pointer", !8, i64 0}
!11 = !{!12, !12, i64 0}
!12 = !{!"p1 _ZTSSt6bitsetILm2EE", !6, i64 0}
!13 = !{!14, !14, i64 0}
!14 = !{!"_ZTS10FilterKind", !7, i64 0}
!15 = !{!16, !16, i64 0}
!16 = !{!"long", !7, i64 0}
!17 = !{!18, !18, i64 0}
!18 = !{!"p1 _ZTSNSt6bitsetILm2EE9referenceE", !6, i64 0}
!19 = !{!20, !20, i64 0}
!20 = !{!"bool", !7, i64 0}
!21 = !{i8 0, i8 2}
!22 = !{}
!23 = !{!24, !16, i64 8}
!24 = !{!"_ZTSNSt6bitsetILm2EE9referenceE", !25, i64 0, !16, i64 8}
!25 = !{!"p1 long", !6, i64 0}
!26 = !{!24, !25, i64 0}
!27 = !{!28, !28, i64 0}
!28 = !{!"p1 _ZTSSt12_Base_bitsetILm1EE", !6, i64 0}
!29 = !{!30, !16, i64 0}
!30 = !{!"_ZTSSt12_Base_bitsetILm1EE", !16, i64 0}
!31 = !{!25, !25, i64 0}
!32 = !{!33, !33, i64 0}
!33 = !{!"p1 omnipotent char", !6, i64 0}
