; ModuleID = 'bench/csmith/original/Filter.ll'
source_filename = "bench/csmith/original/Filter.ll"
target datalayout = "e-m:e-p270:32:32-p271:32:32-p272:64:64-i64:64-i128:128-f80:128-n8:16:32:64-S128"
target triple = "x86_64-pc-linux-gnu"

@_ZTV6Filter = dso_local unnamed_addr constant { [5 x ptr] } { [5 x ptr] [ptr null, ptr @_ZTI6Filter, ptr @_ZN6FilterD2Ev, ptr @_ZN6FilterD0Ev, ptr @__cxa_pure_virtual] }, align 8
@_ZTI6Filter = dso_local constant { ptr, ptr } { ptr getelementptr inbounds (ptr, ptr @_ZTVN10__cxxabiv117__class_type_infoE, i64 2), ptr @_ZTS6Filter }, align 8
@_ZTVN10__cxxabiv117__class_type_infoE = external global [0 x ptr]
@_ZTS6Filter = dso_local constant [8 x i8] c"6Filter\00", align 1

@_ZN6FilterD1Ev = dso_local unnamed_addr alias void (ptr), ptr @_ZN6FilterD2Ev

; Function Attrs: mustprogress nofree norecurse nosync nounwind willreturn memory(argmem: write) uwtable
define dso_local void @_ZN6FilterC2Ev(ptr noundef nonnull writeonly align 8 captures(none) dereferenceable(16) initializes((0, 16)) %0) unnamed_addr #0 align 2 {
  store ptr getelementptr inbounds nuw inrange(-16, 24) (i8, ptr @_ZTV6Filter, i64 16), ptr %0, align 8, !tbaa !4
  %2 = getelementptr inbounds nuw i8, ptr %0, i64 8
  store i64 3, ptr %2, align 8, !tbaa !7
  ret void
}

; Function Attrs: mustprogress nofree norecurse nosync nounwind willreturn memory(argmem: write) uwtable
define dso_local void @_ZN6FilterD2Ev(ptr noundef nonnull writeonly align 8 captures(none) dereferenceable(16) initializes((0, 16)) %0) unnamed_addr #0 align 2 {
  store ptr getelementptr inbounds nuw inrange(-16, 24) (i8, ptr @_ZTV6Filter, i64 16), ptr %0, align 8, !tbaa !4
  %2 = getelementptr inbounds nuw i8, ptr %0, i64 8
  store i64 0, ptr %2, align 8, !tbaa !10
  ret void
}

; Function Attrs: cold mustprogress noreturn nounwind memory(inaccessiblemem: write) uwtable
define dso_local void @_ZN6FilterD0Ev(ptr nonnull readnone align 8 captures(none) %0) unnamed_addr #1 align 2 {
  tail call void @llvm.trap() #6
  unreachable
}

; Function Attrs: cold noreturn nounwind memory(inaccessiblemem: write)
declare void @llvm.trap() #2

; Function Attrs: mustprogress nofree norecurse nosync nounwind willreturn memory(argmem: readwrite) uwtable
define dso_local void @_ZN6Filter6enableE10FilterKind(ptr noundef nonnull align 8 captures(none) dereferenceable(16) %0, i32 noundef %1) local_unnamed_addr #3 align 2 {
  %3 = getelementptr inbounds nuw i8, ptr %0, i64 8
  %4 = and i32 %1, 63
  %5 = zext nneg i32 %4 to i64
  %6 = shl nuw i64 1, %5
  %7 = load i64, ptr %3, align 8, !tbaa !7
  %8 = or i64 %7, %6
  store i64 %8, ptr %3, align 8, !tbaa !7
  ret void
}

; Function Attrs: mustprogress nofree norecurse nosync nounwind willreturn memory(argmem: readwrite) uwtable
define dso_local void @_ZN6Filter7disableE10FilterKind(ptr noundef nonnull align 8 captures(none) dereferenceable(16) %0, i32 noundef %1) local_unnamed_addr #3 align 2 {
  %3 = getelementptr inbounds nuw i8, ptr %0, i64 8
  %4 = and i32 %1, 63
  %5 = zext nneg i32 %4 to i64
  %6 = shl nuw i64 1, %5
  %7 = xor i64 %6, -1
  %8 = load i64, ptr %3, align 8, !tbaa !7
  %9 = and i64 %8, %7
  store i64 %9, ptr %3, align 8, !tbaa !7
  ret void
}

; Function Attrs: mustprogress uwtable
define dso_local noundef range(i32 0, 2) i32 @_ZNK6Filter12current_kindEv(ptr noundef nonnull readnone align 8 captures(none) dereferenceable(16) %0) local_unnamed_addr #4 align 2 {
  %2 = tail call noundef zeroext i1 @_ZN9CGOptions12random_basedEv()
  br i1 %2, label %5, label %3

3:                                                ; preds = %1
  %4 = tail call noundef zeroext i1 @_ZN9CGOptions14dfs_exhaustiveEv()
  %. = zext i1 %4 to i32
  br label %5

5:                                                ; preds = %3, %1
  %.0 = phi i32 [ 0, %1 ], [ %., %3 ]
  ret i32 %.0
}

declare noundef zeroext i1 @_ZN9CGOptions12random_basedEv() local_unnamed_addr #5

declare noundef zeroext i1 @_ZN9CGOptions14dfs_exhaustiveEv() local_unnamed_addr #5

; Function Attrs: mustprogress uwtable
define dso_local noundef zeroext i1 @_ZNK6Filter12valid_filterEv(ptr noundef nonnull readonly align 8 captures(none) dereferenceable(16) %0) local_unnamed_addr #4 align 2 {
  %2 = tail call noundef zeroext i1 @_ZN9CGOptions12random_basedEv()
  br i1 %2, label %_ZNK6Filter12current_kindEv.exit, label %3

3:                                                ; preds = %1
  %4 = tail call noundef zeroext i1 @_ZN9CGOptions14dfs_exhaustiveEv()
  %5 = zext i1 %4 to i64
  br label %_ZNK6Filter12current_kindEv.exit

_ZNK6Filter12current_kindEv.exit:                 ; preds = %1, %3
  %.0.i = phi i64 [ 0, %1 ], [ %5, %3 ]
  %6 = getelementptr inbounds nuw i8, ptr %0, i64 8
  %7 = load i64, ptr %6, align 8, !tbaa !10
  %8 = shl nuw nsw i64 1, %.0.i
  %9 = and i64 %7, %8
  %10 = icmp ne i64 %9, 0
  ret i1 %10
}

declare void @__cxa_pure_virtual() unnamed_addr


!llvm.module.flags = !{!0, !1, !2, !3}

!0 = !{i32 1, !"wchar_size", i32 4}
!1 = !{i32 8, !"PIC Level", i32 2}
!2 = !{i32 7, !"PIE Level", i32 2}
!3 = !{i32 7, !"uwtable", i32 2}
!4 = !{!5, !5, i64 0}
!5 = !{!"vtable pointer", !6, i64 0}
!6 = !{!"Simple C++ TBAA"}
!7 = !{!8, !8, i64 0}
!8 = !{!"long", !9, i64 0}
!9 = !{!"omnipotent char", !6, i64 0}
!10 = !{!11, !8, i64 0}
!11 = !{!"_ZTSSt12_Base_bitsetILm1EE", !8, i64 0}
